; Function Attrs: nounwind uwtable
define internal ptr @make_type_with_base(ptr readnone captures(none) %0, ptr noundef %1) #0 {
  %3 = alloca %struct.PyType_Spec, align 8
  %4 = getelementptr i8, ptr %1, i64 8
  %.val = load ptr, ptr %4, align 8, !tbaa !9
  %5 = getelementptr i8, ptr %.val, i64 168
  %.val.val = load i64, ptr %5, align 8, !tbaa !12
  %6 = and i64 %.val.val, 2147483648
  %.not3 = icmp eq i64 %6, 0
  br i1 %.not3, label %7, label %8

7:                                                ; preds = %2
  tail call void @__assert_fail(ptr noundef nonnull @.str.67, ptr noundef nonnull @.str.41, i32 noundef 391, ptr noundef nonnull @__PRETTY_FUNCTION__.make_type_with_base) #10
  unreachable

8:                                                ; preds = %2
  call void @llvm.lifetime.start.p0(i64 32, ptr nonnull %3) #8
  store ptr @.str.69, ptr %3, align 8, !tbaa !24
  %9 = getelementptr inbounds nuw i8, ptr %3, i64 8
  %10 = getelementptr inbounds nuw i8, ptr %1, i64 32
  %11 = load i64, ptr %10, align 8, !tbaa !45
  %12 = trunc i64 %11 to i32
  store i32 %12, ptr %9, align 8, !tbaa !26
  %13 = getelementptr inbounds nuw i8, ptr %3, i64 12
  store i32 0, ptr %13, align 4, !tbaa !27
  %14 = getelementptr inbounds nuw i8, ptr %3, i64 16
  store i32 0, ptr %14, align 8, !tbaa !28
  %15 = getelementptr inbounds nuw i8, ptr %3, i64 20
  store i32 0, ptr %15, align 4
  %16 = getelementptr inbounds nuw i8, ptr %3, i64 24
  store ptr @empty_type_slots, ptr %16, align 8, !tbaa !29
  %17 = call ptr @PyType_FromSpecWithBases(ptr noundef nonnull %3, ptr noundef nonnull %1) #8
  call void @llvm.lifetime.end.p0(i64 32, ptr nonnull %3) #8
  ret ptr %17
}